; Function Attrs: mustprogress nofree norecurse nosync nounwind willreturn memory(argmem: write) uwtable
define hidden void @_ZN2cv8tinyxml27XMLNodeC2EPNS0_11XMLDocumentE(ptr noundef nonnull writeonly align 8 captures(none) dereferenceable(88) initializes((0, 28), (32, 88)) %0, ptr noundef %1) unnamed_addr #15 align 2 {
  store ptr getelementptr inbounds nuw inrange(-16, 144) (i8, ptr @_ZTVN2cv8tinyxml27XMLNodeE, i64 16), ptr %0, align 8, !tbaa !39
  %3 = getelementptr inbounds nuw i8, ptr %0, i64 8
  store ptr %1, ptr %3, align 8, !tbaa !33
  %4 = getelementptr inbounds nuw i8, ptr %0, i64 16
  store ptr null, ptr %4, align 8, !tbaa !38
  %5 = getelementptr inbounds nuw i8, ptr %0, i64 24
  store i32 0, ptr %5, align 8, !tbaa !3
  %6 = getelementptr inbounds nuw i8, ptr %0, i64 32
  tail call void @llvm.memset.p0.i64(ptr noundef nonnull align 8 dereferenceable(56) %6, i8 0, i64 56, i1 false)
  ret void
}